target datalayout = "e-m:e-p270:32:32-p271:32:32-p272:64:64-i64:64-i128:128-f80:128-n8:16:32:64-S128"
target triple = "x86_64-pc-linux-gnu"

%struct.H5O_obj_class_t = type { i32, ptr, ptr, ptr, ptr, ptr, ptr, ptr, ptr, ptr }
%struct.H5O_t = type { %struct.H5C_cache_entry_t, i64, i64, i8, i64, i8, i32, i8, i8, i64, i64, i64, i64, i32, i32, i64, i64, ptr, i64, i64, i64, i64, ptr, i8, ptr }
%struct.H5C_cache_entry_t = type { ptr, i64, i64, ptr, i8, ptr, i8, i8, i8, i8, i32, i8, i8, i8, i8, i8, i32, ptr, i32, i32, i32, i32, i32, i8, i8, ptr, ptr, ptr, ptr, ptr, ptr, i8, i32, i8, i64, ptr, i64, i64, i32, i8, i32, i32, i8, ptr, ptr, ptr }

@.str.4 = private unnamed_addr constant [100 x i8] c"generated/home/dtcxzyw/WorkSpace/Projects/compilers/llvm-opt-benchmark/bench/hdf5/hdf5/src/H5Oint.c\00", align 1
@H5E_OHDR_g = external global i64, align 8
@H5E_CANTPROTECT_g = external global i64, align 8
@.str.41 = private unnamed_addr constant [29 x i8] c"unable to load object header\00", align 1
@H5E_CANTUNPROTECT_g = external global i64, align 8
@.str.47 = private unnamed_addr constant [32 x i8] c"unable to release object header\00", align 1
@H5E_CANTINIT_g = external global i64, align 8
@.str.58 = private unnamed_addr constant [32 x i8] c"unable to determine object type\00", align 1
@H5O_obj_class_g = internal constant [3 x ptr] [ptr @H5O_OBJ_DATATYPE, ptr @H5O_OBJ_DATASET, ptr @H5O_OBJ_GROUP], align 16
@__func__.H5O_get_rc_and_type = private unnamed_addr constant [20 x i8] c"H5O_get_rc_and_type\00", align 1
@__func__.H5O__obj_class_real = private unnamed_addr constant [20 x i8] c"H5O__obj_class_real\00", align 1

; Function Attrs: nounwind uwtable
define internal ptr @H5O__obj_class_real(ptr noundef %0) #0 {
  %2 = alloca ptr, align 8
  %3 = alloca i64, align 8
  %4 = alloca ptr, align 8
  %5 = alloca i8, align 1
  %6 = alloca i32, align 4
  store ptr %0, ptr %2, align 8
  store ptr null, ptr %4, align 8
  store i8 0, ptr %5, align 1
  store i64 3, ptr %3, align 8
  br label %7

7:                                                ; preds = %47, %1
  %8 = load i64, ptr %3, align 8
  %9 = icmp ugt i64 %8, 0
  br i1 %9, label %10, label %50

10:                                               ; preds = %7
  %11 = load i64, ptr %3, align 8
  %12 = sub i64 %11, 1
  %13 = getelementptr inbounds [3 x ptr], ptr @H5O_obj_class_g, i64 0, i64 %12
  %14 = load ptr, ptr %13, align 8
  %15 = getelementptr inbounds %struct.H5O_obj_class_t, ptr %14, i32 0, i32 4
  %16 = load ptr, ptr %15, align 8
  %17 = load ptr, ptr %2, align 8
  %18 = call i32 %16(ptr noundef %17)
  store i32 %18, ptr %6, align 4
  %19 = icmp slt i32 %18, 0
  br i1 %19, label %20, label %35

20:                                               ; preds = %10
  br label %21

21:                                               ; preds = %20
  br label %22

22:                                               ; preds = %21
  br label %23

23:                                               ; preds = %22
  %24 = load i64, ptr @H5E_OHDR_g, align 8
  %25 = load i64, ptr @H5E_CANTINIT_g, align 8
  %26 = call i32 (ptr, ptr, i32, i64, i64, ptr, ...) @H5E_printf_stack(ptr noundef @.str.4, ptr noundef @__func__.H5O__obj_class_real, i32 noundef 1689, i64 noundef %24, i64 noundef %25, ptr noundef @.str.58)
  br label %27

27:                                               ; preds = %23
  store i8 1, ptr %5, align 1
  %28 = load i8, ptr %5, align 1
  %29 = trunc i8 %28 to i1
  %30 = zext i1 %29 to i8
  store i8 %30, ptr %5, align 1
  br label %31

31:                                               ; preds = %27
  br label %32

32:                                               ; preds = %31
  store ptr null, ptr %4, align 8
  br label %69

33:                                               ; No predecessors!
  br label %34

34:                                               ; preds = %33
  br label %46

35:                                               ; preds = %10
  %36 = load i32, ptr %6, align 4
  %37 = icmp ne i32 %36, 0
  br i1 %37, label %38, label %45

38:                                               ; preds = %35
  br label %39

39:                                               ; preds = %38
  %40 = load i64, ptr %3, align 8
  %41 = sub i64 %40, 1
  %42 = getelementptr inbounds [3 x ptr], ptr @H5O_obj_class_g, i64 0, i64 %41
  %43 = load ptr, ptr %42, align 8
  store ptr %43, ptr %4, align 8
  br label %69

44:                                               ; No predecessors!
  br label %45

45:                                               ; preds = %44, %35
  br label %46

46:                                               ; preds = %45, %34
  br label %47

47:                                               ; preds = %46
  %48 = load i64, ptr %3, align 8
  %49 = add i64 %48, -1
  store i64 %49, ptr %3, align 8
  br label %7

50:                                               ; preds = %7
  %51 = load i64, ptr %3, align 8
  %52 = icmp eq i64 0, %51
  br i1 %52, label %53, label %68

53:                                               ; preds = %50
  br label %54

54:                                               ; preds = %53
  br label %55

55:                                               ; preds = %54
  br label %56

56:                                               ; preds = %55
  %57 = load i64, ptr @H5E_OHDR_g, align 8
  %58 = load i64, ptr @H5E_CANTINIT_g, align 8
  %59 = call i32 (ptr, ptr, i32, i64, i64, ptr, ...) @H5E_printf_stack(ptr noundef @.str.4, ptr noundef @__func__.H5O__obj_class_real, i32 noundef 1695, i64 noundef %57, i64 noundef %58, ptr noundef @.str.58)
  br label %60

60:                                               ; preds = %56
  store i8 1, ptr %5, align 1
  %61 = load i8, ptr %5, align 1
  %62 = trunc i8 %61 to i1
  %63 = zext i1 %62 to i8
  store i8 %63, ptr %5, align 1
  br label %64

64:                                               ; preds = %60
  br label %65

65:                                               ; preds = %64
  store ptr null, ptr %4, align 8
  br label %69

66:                                               ; No predecessors!
  br label %67

67:                                               ; preds = %66
  br label %68

68:                                               ; preds = %67, %50
  br label %69

69:                                               ; preds = %68, %65, %39, %32
  %70 = load ptr, ptr %4, align 8
  ret ptr %70
}

; Function Attrs: nounwind uwtable
define internal i32 @H5O__obj_type_real(ptr noundef %0, ptr noundef %1) #0 {
  %3 = alloca ptr, align 8
  %4 = alloca ptr, align 8
  %5 = alloca ptr, align 8
  store ptr %0, ptr %3, align 8
  store ptr %1, ptr %4, align 8
  %6 = load ptr, ptr %3, align 8
  %7 = call ptr @H5O__obj_class_real(ptr noundef %6)
  store ptr %7, ptr %5, align 8
  %8 = icmp eq ptr null, %7
  br i1 %8, label %9, label %12

9:                                                ; preds = %2
  %10 = call i32 @H5E_clear_stack()
  %11 = load ptr, ptr %4, align 8
  store i32 -1, ptr %11, align 4
  br label %17

12:                                               ; preds = %2
  %13 = load ptr, ptr %5, align 8
  %14 = getelementptr inbounds %struct.H5O_obj_class_t, ptr %13, i32 0, i32 0
  %15 = load i32, ptr %14, align 8
  %16 = load ptr, ptr %4, align 8
  store i32 %15, ptr %16, align 4
  br label %17

17:                                               ; preds = %12, %9
  ret i32 0
}

; Function Attrs: nounwind uwtable
define i32 @H5O_get_rc_and_type(ptr noundef %0, ptr noundef %1, ptr noundef %2) #0 {
  %4 = alloca ptr, align 8
  %5 = alloca ptr, align 8
  %6 = alloca ptr, align 8
  %7 = alloca ptr, align 8
  %8 = alloca i32, align 4
  %9 = alloca i8, align 1
  store ptr %0, ptr %4, align 8
  store ptr %1, ptr %5, align 8
  store ptr %2, ptr %6, align 8
  store ptr null, ptr %7, align 8
  store i32 0, ptr %8, align 4
  store i8 0, ptr %9, align 1
  %10 = load ptr, ptr %4, align 8
  %11 = call ptr @H5O_protect(ptr noundef %10, i32 noundef 128, i1 noundef zeroext false)
  store ptr %11, ptr %7, align 8
  %12 = icmp eq ptr null, %11
  br i1 %12, label %13, label %28

13:                                               ; preds = %3
  br label %14

14:                                               ; preds = %13
  br label %15

15:                                               ; preds = %14
  br label %16

16:                                               ; preds = %15
  %17 = load i64, ptr @H5E_OHDR_g, align 8
  %18 = load i64, ptr @H5E_CANTPROTECT_g, align 8
  %19 = call i32 (ptr, ptr, i32, i64, i64, ptr, ...) @H5E_printf_stack(ptr noundef @.str.4, ptr noundef @__func__.H5O_get_rc_and_type, i32 noundef 2453, i64 noundef %17, i64 noundef %18, ptr noundef @.str.41)
  br label %20

20:                                               ; preds = %16
  store i8 1, ptr %9, align 1
  %21 = load i8, ptr %9, align 1
  %22 = trunc i8 %21 to i1
  %23 = zext i1 %22 to i8
  store i8 %23, ptr %9, align 1
  br label %24

24:                                               ; preds = %20
  br label %25

25:                                               ; preds = %24
  store i32 -1, ptr %8, align 4
  br label %61

26:                                               ; No predecessors!
  br label %27

27:                                               ; preds = %26
  br label %28

28:                                               ; preds = %27, %3
  %29 = load ptr, ptr %5, align 8
  %30 = icmp ne ptr %29, null
  br i1 %30, label %31, label %36

31:                                               ; preds = %28
  %32 = load ptr, ptr %7, align 8
  %33 = getelementptr inbounds %struct.H5O_t, ptr %32, i32 0, i32 6
  %34 = load i32, ptr %33, align 4
  %35 = load ptr, ptr %5, align 8
  store i32 %34, ptr %35, align 4
  br label %36

36:                                               ; preds = %31, %28
  %37 = load ptr, ptr %6, align 8
  %38 = icmp ne ptr %37, null
  br i1 %38, label %39, label %60

39:                                               ; preds = %36
  %40 = load ptr, ptr %7, align 8
  %41 = load ptr, ptr %6, align 8
  %42 = call i32 @H5O__obj_type_real(ptr noundef %40, ptr noundef %41)
  %43 = icmp slt i32 %42, 0
  br i1 %43, label %44, label %59

44:                                               ; preds = %39
  br label %45

45:                                               ; preds = %44
  br label %46

46:                                               ; preds = %45
  br label %47

47:                                               ; preds = %46
  %48 = load i64, ptr @H5E_OHDR_g, align 8
  %49 = load i64, ptr @H5E_CANTINIT_g, align 8
  %50 = call i32 (ptr, ptr, i32, i64, i64, ptr, ...) @H5E_printf_stack(ptr noundef @.str.4, ptr noundef @__func__.H5O_get_rc_and_type, i32 noundef 2462, i64 noundef %48, i64 noundef %49, ptr noundef @.str.58)
  br label %51

51:                                               ; preds = %47
  store i8 1, ptr %9, align 1
  %52 = load i8, ptr %9, align 1
  %53 = trunc i8 %52 to i1
  %54 = zext i1 %53 to i8
  store i8 %54, ptr %9, align 1
  br label %55

55:                                               ; preds = %51
  br label %56

56:                                               ; preds = %55
  store i32 -1, ptr %8, align 4
  br label %61

57:                                               ; No predecessors!
  br label %58

58:                                               ; preds = %57
  br label %59

59:                                               ; preds = %58, %39
  br label %60

60:                                               ; preds = %59, %36
  br label %61

61:                                               ; preds = %60, %56, %25
  %62 = load ptr, ptr %7, align 8
  %63 = icmp ne ptr %62, null
  br i1 %63, label %64, label %82

64:                                               ; preds = %61
  %65 = load ptr, ptr %4, align 8
  %66 = load ptr, ptr %7, align 8
  %67 = call i32 @H5O_unprotect(ptr noundef %65, ptr noundef %66, i32 noundef 0)
  %68 = icmp slt i32 %67, 0
  br i1 %68, label %69, label %82

69:                                               ; preds = %64
  br label %70

70:                                               ; preds = %69
  br label %71

71:                                               ; preds = %70
  br label %72

72:                                               ; preds = %71
  %73 = load i64, ptr @H5E_OHDR_g, align 8
  %74 = load i64, ptr @H5E_CANTUNPROTECT_g, align 8
  %75 = call i32 (ptr, ptr, i32, i64, i64, ptr, ...) @H5E_printf_stack(ptr noundef @.str.4, ptr noundef @__func__.H5O_get_rc_and_type, i32 noundef 2466, i64 noundef %73, i64 noundef %74, ptr noundef @.str.47)
  br label %76

76:                                               ; preds = %72
  store i8 1, ptr %9, align 1
  %77 = load i8, ptr %9, align 1
  %78 = trunc i8 %77 to i1
  %79 = zext i1 %78 to i8
  store i8 %79, ptr %9, align 1
  br label %80

80:                                               ; preds = %76
  store i32 -1, ptr %8, align 4
  br label %81

81:                                               ; preds = %80
  br label %82

82:                                               ; preds = %81, %64, %61
  %83 = load i32, ptr %8, align 4
  ret i32 %83
}