; Function Attrs: nounwind uwtable
define range(i32 -1, 1) i32 @H5O_get_rc_and_type(ptr nocapture noundef readonly %0, ptr noundef writeonly %1, ptr noundef writeonly %2) local_unnamed_addr #1 {
  %4 = tail call ptr @H5O_protect(ptr noundef %0, i32 noundef 128, i1 noundef zeroext false)
  %5 = icmp eq ptr %4, null
  br i1 %5, label %.thread, label %9

.thread:                                          ; preds = %3
  %6 = load i64, ptr @H5E_OHDR_g, align 8
  %7 = load i64, ptr @H5E_CANTPROTECT_g, align 8
  %8 = tail call i32 (ptr, ptr, i32, i64, i64, ptr, ...) @H5E_printf_stack(ptr noundef nonnull @.str.4, ptr noundef nonnull @__func__.H5O_get_rc_and_type, i32 noundef 2453, i64 noundef %6, i64 noundef %7, ptr noundef nonnull @.str.41) #11
  br label %36

9:                                                ; preds = %3
  %.not = icmp eq ptr %1, null
  br i1 %.not, label %13, label %10

10:                                               ; preds = %9
  %11 = getelementptr inbounds i8, ptr %4, i64 284
  %12 = load i32, ptr %11, align 4
  store i32 %12, ptr %1, align 4
  br label %13

13:                                               ; preds = %10, %9
  %.not17 = icmp eq ptr %2, null
  br i1 %.not17, label %.thread20, label %.preheader

.preheader:                                       ; preds = %13, %22
  %.0.i.i = phi i64 [ %15, %22 ], [ 3, %13 ]
  %.not.i.i = icmp eq i64 %.0.i.i, 0
  br i1 %.not.i.i, label %23, label %14

14:                                               ; preds = %.preheader
  %15 = add nsw i64 %.0.i.i, -1
  %16 = getelementptr inbounds [3 x ptr], ptr @H5O_obj_class_g, i64 0, i64 %15
  %17 = load ptr, ptr %16, align 8
  %18 = getelementptr inbounds i8, ptr %17, i64 32
  %19 = load ptr, ptr %18, align 8
  %20 = tail call i32 %19(ptr noundef nonnull %4) #11
  %21 = icmp slt i32 %20, 0
  br i1 %21, label %23, label %22

22:                                               ; preds = %14
  %.not11.i.i = icmp eq i32 %20, 0
  br i1 %.not11.i.i, label %.preheader, label %H5O__obj_class_real.exit.i

23:                                               ; preds = %14, %.preheader
  %.sink.i.i = phi i32 [ 1689, %14 ], [ 1695, %.preheader ]
  %24 = load i64, ptr @H5E_OHDR_g, align 8
  %25 = load i64, ptr @H5E_CANTINIT_g, align 8
  %26 = tail call i32 (ptr, ptr, i32, i64, i64, ptr, ...) @H5E_printf_stack(ptr noundef nonnull @.str.4, ptr noundef nonnull @__func__.H5O__obj_class_real, i32 noundef %.sink.i.i, i64 noundef %24, i64 noundef %25, ptr noundef nonnull @.str.58) #11
  %27 = tail call i32 @H5E_clear_stack() #11
  br label %29

H5O__obj_class_real.exit.i:                       ; preds = %22
  %28 = load i32, ptr %17, align 8
  br label %29

29:                                               ; preds = %H5O__obj_class_real.exit.i, %23
  %storemerge.i = phi i32 [ %28, %H5O__obj_class_real.exit.i ], [ -1, %23 ]
  store i32 %storemerge.i, ptr %2, align 4
  br label %.thread20

.thread20:                                        ; preds = %29, %13
  %30 = tail call i32 @H5O_unprotect(ptr noundef %0, ptr noundef nonnull %4, i32 noundef 0)
  %31 = icmp slt i32 %30, 0
  br i1 %31, label %32, label %36

32:                                               ; preds = %.thread20
  %33 = load i64, ptr @H5E_OHDR_g, align 8
  %34 = load i64, ptr @H5E_CANTUNPROTECT_g, align 8
  %35 = tail call i32 (ptr, ptr, i32, i64, i64, ptr, ...) @H5E_printf_stack(ptr noundef nonnull @.str.4, ptr noundef nonnull @__func__.H5O_get_rc_and_type, i32 noundef 2466, i64 noundef %33, i64 noundef %34, ptr noundef nonnull @.str.47) #11
  br label %36

36:                                               ; preds = %.thread, %32, %.thread20
  %.1 = phi i32 [ -1, %32 ], [ 0, %.thread20 ], [ -1, %.thread ]
  ret i32 %.1
}